; Function Attrs: nounwind uwtable
define hidden void @mbedtls_ssl_buffering_free(ptr noundef readonly captures(none) %0) local_unnamed_addr #0 {
  %2 = getelementptr inbounds nuw i8, ptr %0, i64 112
  %3 = load ptr, ptr %2, align 8, !tbaa !75
  %4 = icmp eq ptr %3, null
  br i1 %4, label %.loopexit, label %5

5:                                                ; preds = %1
  %6 = getelementptr inbounds nuw i8, ptr %3, i64 1848
  %7 = load ptr, ptr %6, align 8, !tbaa !129
  %.not.i = icmp eq ptr %7, null
  br i1 %.not.i, label %ssl_free_buffered_record.exit.preheader, label %8

8:                                                ; preds = %5
  %9 = getelementptr inbounds nuw i8, ptr %3, i64 1736
  %10 = getelementptr inbounds nuw i8, ptr %3, i64 1856
  %11 = load i64, ptr %10, align 8, !tbaa !130
  %12 = load i64, ptr %9, align 8, !tbaa !131
  %13 = sub i64 %12, %11
  store i64 %13, ptr %9, align 8, !tbaa !131
  tail call void @free(ptr noundef nonnull %7) #19
  store ptr null, ptr %6, align 8, !tbaa !129
  br label %ssl_free_buffered_record.exit.preheader

ssl_free_buffered_record.exit.preheader:          ; preds = %5, %8
  br label %ssl_free_buffered_record.exit

ssl_free_buffered_record.exit:                    ; preds = %ssl_free_buffered_record.exit.preheader, %ssl_buffering_free_slot.exit
  %indvars.iv = phi i64 [ %indvars.iv.next, %ssl_buffering_free_slot.exit ], [ 0, %ssl_free_buffered_record.exit.preheader ]
  %.val6 = load ptr, ptr %2, align 8, !tbaa !75
  %14 = getelementptr inbounds nuw i8, ptr %.val6, i64 1752
  %15 = getelementptr inbounds nuw [4 x %struct.mbedtls_ssl_hs_buffer], ptr %14, i64 0, i64 %indvars.iv
  %16 = load i8, ptr %15, align 8
  %17 = and i8 %16, 1
  %.not.i7 = icmp eq i8 %17, 0
  br i1 %.not.i7, label %ssl_buffering_free_slot.exit, label %18

18:                                               ; preds = %ssl_free_buffered_record.exit
  %19 = getelementptr inbounds nuw i8, ptr %.val6, i64 1736
  %20 = getelementptr inbounds nuw i8, ptr %15, i64 16
  %21 = load i64, ptr %20, align 8, !tbaa !132
  %22 = load i64, ptr %19, align 8, !tbaa !131
  %23 = sub i64 %22, %21
  store i64 %23, ptr %19, align 8, !tbaa !131
  %24 = getelementptr inbounds nuw i8, ptr %15, i64 8
  %25 = load ptr, ptr %24, align 8, !tbaa !134
  tail call void @mbedtls_zeroize_and_free(ptr noundef %25, i64 noundef %21) #19
  tail call void @llvm.memset.p0.i64(ptr noundef nonnull align 8 dereferenceable(24) %15, i8 0, i64 24, i1 false)
  br label %ssl_buffering_free_slot.exit

ssl_buffering_free_slot.exit:                     ; preds = %ssl_free_buffered_record.exit, %18
  %indvars.iv.next = add nuw nsw i64 %indvars.iv, 1
  %exitcond.not = icmp eq i64 %indvars.iv.next, 4
  br i1 %exitcond.not, label %.loopexit, label %ssl_free_buffered_record.exit, !llvm.loop !135

.loopexit:                                        ; preds = %ssl_buffering_free_slot.exit, %1
  ret void
}